; Function Attrs: null_pointer_is_valid sspstrong uwtable
define internal i32 @netlogon_dissect_DOMAIN_TRUST_ATTRIBS(ptr noundef %0, i32 noundef %1, ptr noundef %2, ptr noundef %3, ptr noundef %4, ptr noundef %5) #0 {
  %7 = alloca i32, align 4
  call void @llvm.lifetime.start.p0(i64 4, ptr nonnull %7) #15
  %8 = getelementptr inbounds nuw i8, ptr %4, i64 25
  %9 = load i8, ptr %8, align 1, !range !6, !noundef !7
  %10 = trunc nuw i8 %9 to i1
  br i1 %10, label %19, label %11

11:                                               ; preds = %6
  %12 = call i32 @dissect_ndr_uint32(ptr noundef %0, i32 noundef %1, ptr noundef %2, ptr noundef null, ptr noundef %4, ptr noundef %5, i32 noundef -1, ptr noundef nonnull %7)
  %13 = add i32 %12, -4
  %14 = load i32, ptr @hf_netlogon_trust_attribs, align 4
  %15 = load i32, ptr @ett_trust_attribs, align 4
  %16 = load i32, ptr %7, align 4
  %17 = zext i32 %16 to i64
  %18 = call ptr @proto_tree_add_bitmask_value_with_flags(ptr noundef %3, ptr noundef %0, i32 noundef %13, i32 noundef %14, i32 noundef %15, ptr noundef nonnull @netlogon_dissect_DOMAIN_TRUST_ATTRIBS.attr, i64 noundef %17, i32 noundef 1)
  br label %19

19:                                               ; preds = %6, %11
  %.0 = phi i32 [ %12, %11 ], [ %1, %6 ]
  call void @llvm.lifetime.end.p0(i64 4, ptr nonnull %7) #15
  ret i32 %.0
}